; Function Attrs: mustprogress uwtable
define hidden void @_ZN2cv23CvVideoWriter_GStreamer5closeEv(ptr noundef nonnull align 8 captures(none) dereferenceable(56) %0) local_unnamed_addr #3 align 2 personality ptr @__gxx_personality_v0 {
  tail call void @_ZN2cv23CvVideoWriter_GStreamer6close_Ev(ptr noundef nonnull align 8 dereferenceable(56) %0)
  %2 = getelementptr inbounds nuw i8, ptr %0, i64 16
  %3 = load ptr, ptr %2, align 8, !tbaa !62
  %.not.i = icmp eq ptr %3, null
  br i1 %.not.i, label %_ZN2cv12_GLOBAL__N_18GSafePtrI11_GstElementE7releaseEv.exit, label %4

4:                                                ; preds = %1
  %5 = invoke ptr @g_type_check_instance_cast(ptr noundef nonnull %3, i64 noundef 80)
          to label %.noexc.i unwind label %6

.noexc.i:                                         ; preds = %4
  invoke void @gst_object_unref(ptr noundef %5)
          to label %_ZN2cv12_GLOBAL__N_116GSafePtr_releaseI11_GstElementEEvPPT_.exit.i unwind label %6

_ZN2cv12_GLOBAL__N_116GSafePtr_releaseI11_GstElementEEvPPT_.exit.i: ; preds = %.noexc.i
  store ptr null, ptr %2, align 8, !tbaa !63
  br label %_ZN2cv12_GLOBAL__N_18GSafePtrI11_GstElementE7releaseEv.exit

6:                                                ; preds = %.noexc.i, %4
  %7 = landingpad { ptr, i32 }
          catch ptr null
  %8 = extractvalue { ptr, i32 } %7, 0
  tail call void @__clang_call_terminate(ptr %8) #32
  unreachable

_ZN2cv12_GLOBAL__N_18GSafePtrI11_GstElementE7releaseEv.exit: ; preds = %1, %_ZN2cv12_GLOBAL__N_116GSafePtr_releaseI11_GstElementEEvPPT_.exit.i
  %9 = getelementptr inbounds nuw i8, ptr %0, i64 8
  %10 = load ptr, ptr %9, align 8, !tbaa !62
  %.not.i1 = icmp eq ptr %10, null
  br i1 %.not.i1, label %_ZN2cv12_GLOBAL__N_18GSafePtrI11_GstElementE7releaseEv.exit4, label %11

11:                                               ; preds = %_ZN2cv12_GLOBAL__N_18GSafePtrI11_GstElementE7releaseEv.exit
  %12 = invoke ptr @g_type_check_instance_cast(ptr noundef nonnull %10, i64 noundef 80)
          to label %.noexc.i2 unwind label %13

.noexc.i2:                                        ; preds = %11
  invoke void @gst_object_unref(ptr noundef %12)
          to label %_ZN2cv12_GLOBAL__N_116GSafePtr_releaseI11_GstElementEEvPPT_.exit.i3 unwind label %13

_ZN2cv12_GLOBAL__N_116GSafePtr_releaseI11_GstElementEEvPPT_.exit.i3: ; preds = %.noexc.i2
  store ptr null, ptr %9, align 8, !tbaa !63
  br label %_ZN2cv12_GLOBAL__N_18GSafePtrI11_GstElementE7releaseEv.exit4

13:                                               ; preds = %.noexc.i2, %11
  %14 = landingpad { ptr, i32 }
          catch ptr null
  %15 = extractvalue { ptr, i32 } %14, 0
  tail call void @__clang_call_terminate(ptr %15) #32
  unreachable

_ZN2cv12_GLOBAL__N_18GSafePtrI11_GstElementE7releaseEv.exit4: ; preds = %_ZN2cv12_GLOBAL__N_18GSafePtrI11_GstElementE7releaseEv.exit, %_ZN2cv12_GLOBAL__N_116GSafePtr_releaseI11_GstElementEEvPPT_.exit.i3
  %16 = getelementptr inbounds nuw i8, ptr %0, i64 48
  store i32 0, ptr %16, align 8, !tbaa !660
  %17 = getelementptr inbounds nuw i8, ptr %0, i64 52
  store i32 -1, ptr %17, align 4, !tbaa !663
  ret void
}